; Function Attrs: mustprogress nofree norecurse nosync nounwind willreturn memory(argmem: readwrite) uwtable
define range(i32 0, 2) i32 @EVP_CIPHER_meth_set_init(ptr noundef captures(none) %0, ptr noundef %1) local_unnamed_addr #3 {
  %3 = getelementptr inbounds nuw i8, ptr %0, i64 32
  %4 = load ptr, ptr %3, align 8, !tbaa !21
  %.not = icmp eq ptr %4, null
  br i1 %.not, label %5, label %6

5:                                                ; preds = %2
  store ptr %1, ptr %3, align 8, !tbaa !21
  br label %6

6:                                                ; preds = %2, %5
  %.0 = phi i32 [ 1, %5 ], [ 0, %2 ]
  ret i32 %.0
}